target datalayout = "e-m:e-p270:32:32-p271:32:32-p272:64:64-i64:64-i128:128-f80:128-n8:16:32:64-S128"
target triple = "x86_64-pc-linux-gnu"

%struct._zend_alloc_globals = type { ptr }
%struct._zval_struct = type { %union._zend_value, %union.anon, %union.anon.3 }
%union._zend_value = type { i64 }
%union.anon = type { i32 }
%union.anon.3 = type { i32 }
%struct._zend_mm_heap = type { i32, ptr, i64, i64, [30 x ptr], i64, i64, i64, i32, ptr, ptr, ptr, i32, i32, i32, double, i32, i32, %struct.anon, ptr }
%struct.anon = type { ptr, ptr, ptr }

@alloc_globals = internal global %struct._zend_alloc_globals zeroinitializer, align 8

; Function Attrs: nounwind uwtable
define internal void @tracked_free(ptr noundef %0) #0 {
  %2 = alloca ptr, align 8
  %3 = alloca ptr, align 8
  %4 = alloca i64, align 8
  %5 = alloca ptr, align 8
  %6 = alloca ptr, align 8
  %7 = alloca ptr, align 8
  %8 = alloca ptr, align 8
  store ptr %0, ptr %6, align 8
  %9 = load ptr, ptr %6, align 8
  %10 = icmp ne ptr %9, null
  br i1 %10, label %12, label %11

11:                                               ; preds = %1
  br label %42

12:                                               ; preds = %1
  %13 = load ptr, ptr @alloc_globals, align 8
  store ptr %13, ptr %7, align 8
  %14 = load ptr, ptr %7, align 8
  %15 = load ptr, ptr %6, align 8
  store ptr %14, ptr %2, align 8
  store ptr %15, ptr %3, align 8
  %16 = load ptr, ptr %3, align 8
  %17 = ptrtoint ptr %16 to i64
  %18 = lshr i64 %17, 3
  store i64 %18, ptr %4, align 8
  %19 = load ptr, ptr %2, align 8
  %20 = getelementptr inbounds %struct._zend_mm_heap, ptr %19, i32 0, i32 19
  %21 = load ptr, ptr %20, align 8
  %22 = load i64, ptr %4, align 8
  %23 = call ptr @zend_hash_index_find(ptr noundef %21, i64 noundef %22) #20
  store ptr %23, ptr %5, align 8
  %24 = load ptr, ptr %5, align 8
  %25 = icmp ne ptr %24, null
  br i1 %25, label %26, label %27

26:                                               ; preds = %12
  br label %27

27:                                               ; preds = %26, %12
  %28 = phi i1 [ false, %12 ], [ true, %26 ]
  call void @llvm.assume(i1 %28)
  %29 = load ptr, ptr %5, align 8
  store ptr %29, ptr %8, align 8
  %30 = load ptr, ptr %8, align 8
  %31 = getelementptr inbounds %struct._zval_struct, ptr %30, i32 0, i32 0
  %32 = load i64, ptr %31, align 8
  %33 = load ptr, ptr %7, align 8
  %34 = getelementptr inbounds %struct._zend_mm_heap, ptr %33, i32 0, i32 2
  %35 = load i64, ptr %34, align 8
  %36 = sub i64 %35, %32
  store i64 %36, ptr %34, align 8
  %37 = load ptr, ptr %7, align 8
  %38 = getelementptr inbounds %struct._zend_mm_heap, ptr %37, i32 0, i32 19
  %39 = load ptr, ptr %38, align 8
  %40 = load ptr, ptr %8, align 8
  call void @zend_hash_del_bucket(ptr noundef %39, ptr noundef %40)
  %41 = load ptr, ptr %6, align 8
  call void @free(ptr noundef %41) #20
  br label %42

42:                                               ; preds = %27, %11
  ret void
}