; Function Attrs: nounwind uwtable
define internal void @tracked_free(ptr noundef %0) #0 {
  %.not = icmp eq ptr %0, null
  br i1 %.not, label %15, label %2

2:                                                ; preds = %1
  %3 = load ptr, ptr @alloc_globals.0, align 8
  %4 = ptrtoint ptr %0 to i64
  %5 = lshr i64 %4, 3
  %6 = getelementptr inbounds i8, ptr %3, i64 384
  %7 = load ptr, ptr %6, align 8
  %8 = tail call ptr @zend_hash_index_find(ptr noundef %7, i64 noundef %5) #35
  %9 = icmp ne ptr %8, null
  tail call void @llvm.assume(i1 %9)
  %10 = load i64, ptr %8, align 8
  %11 = getelementptr inbounds i8, ptr %3, i64 16
  %12 = load i64, ptr %11, align 8
  %13 = sub i64 %12, %10
  store i64 %13, ptr %11, align 8
  %14 = load ptr, ptr %6, align 8
  tail call void @zend_hash_del_bucket(ptr noundef %14, ptr noundef nonnull %8) #35
  tail call void @free(ptr noundef nonnull %0) #35
  br label %15

15:                                               ; preds = %1, %2
  ret void
}